target datalayout = "e-m:e-p270:32:32-p271:32:32-p272:64:64-i64:64-i128:128-f80:128-n8:16:32:64-S128"
target triple = "x86_64-pc-linux-gnu"

%struct.AVFormatContext = type { ptr, ptr, ptr, ptr, ptr, i32, i32, ptr, i32, ptr, i32, ptr, ptr, i64, i64, i64, i32, i32, i32, i64, i64, ptr, i32, i32, ptr, i32, i32, i32, i32, ptr, i64, i32, i32, %struct.AVIOInterruptCB, i32, i32, i32, i32, i64, i32, i32, i32, i32, i32, i32, i32, i32, i32, i32, i32, i32, i64, i32, i32, i32, i32, i32, ptr, ptr, ptr, ptr, i32, ptr, ptr, ptr, ptr, i32, ptr, ptr, i64, ptr, ptr, ptr, i64 }
%struct.AVIOInterruptCB = type { ptr, ptr }
%struct.AVPacket = type { ptr, i64, i64, ptr, i32, i32, i32, ptr, i32, i64, i64, ptr, ptr, %struct.AVRational }
%struct.AVRational = type { i32, i32 }
%struct.OSSAudioData = type { ptr, i32, i32, i32, i32, i32, i32, i8, [4096 x i8], i32 }

; Function Attrs: nounwind uwtable
define internal i32 @audio_write_packet(ptr noundef %0, ptr noundef %1) #0 {
  %3 = alloca i32, align 4
  %4 = alloca ptr, align 8
  %5 = alloca ptr, align 8
  %6 = alloca ptr, align 8
  %7 = alloca ptr, align 8
  %8 = alloca i32, align 4
  %9 = alloca i32, align 4
  %10 = alloca i32, align 4
  %11 = alloca i32, align 4
  store ptr %0, ptr %4, align 8, !tbaa !4
  store ptr %1, ptr %5, align 8, !tbaa !47
  call void @llvm.lifetime.start.p0(i64 8, ptr %6) #5
  %12 = load ptr, ptr %4, align 8, !tbaa !4
  %13 = getelementptr inbounds nuw %struct.AVFormatContext, ptr %12, i32 0, i32 3
  %14 = load ptr, ptr %13, align 8, !tbaa !9
  store ptr %14, ptr %6, align 8, !tbaa !26
  call void @llvm.lifetime.start.p0(i64 8, ptr %7) #5
  %15 = load ptr, ptr %5, align 8, !tbaa !47
  %16 = getelementptr inbounds nuw %struct.AVPacket, ptr %15, i32 0, i32 3
  %17 = load ptr, ptr %16, align 8, !tbaa !49
  store ptr %17, ptr %7, align 8, !tbaa !50
  call void @llvm.lifetime.start.p0(i64 4, ptr %8) #5
  call void @llvm.lifetime.start.p0(i64 4, ptr %9) #5
  call void @llvm.lifetime.start.p0(i64 4, ptr %10) #5
  %18 = load ptr, ptr %5, align 8, !tbaa !47
  %19 = getelementptr inbounds nuw %struct.AVPacket, ptr %18, i32 0, i32 4
  %20 = load i32, ptr %19, align 8, !tbaa !51
  store i32 %20, ptr %10, align 4, !tbaa !46
  br label %21

21:                                               ; preds = %89, %2
  %22 = load i32, ptr %10, align 4, !tbaa !46
  %23 = icmp sgt i32 %22, 0
  br i1 %23, label %24, label %97

24:                                               ; preds = %21
  %25 = load ptr, ptr %6, align 8, !tbaa !26
  %26 = getelementptr inbounds nuw %struct.OSSAudioData, ptr %25, i32 0, i32 9
  %27 = load i32, ptr %26, align 4, !tbaa !52
  %28 = sub nsw i32 4096, %27
  %29 = load i32, ptr %10, align 4, !tbaa !46
  %30 = icmp sgt i32 %28, %29
  br i1 %30, label %31, label %33

31:                                               ; preds = %24
  %32 = load i32, ptr %10, align 4, !tbaa !46
  br label %38

33:                                               ; preds = %24
  %34 = load ptr, ptr %6, align 8, !tbaa !26
  %35 = getelementptr inbounds nuw %struct.OSSAudioData, ptr %34, i32 0, i32 9
  %36 = load i32, ptr %35, align 4, !tbaa !52
  %37 = sub nsw i32 4096, %36
  br label %38

38:                                               ; preds = %33, %31
  %39 = phi i32 [ %32, %31 ], [ %37, %33 ]
  store i32 %39, ptr %8, align 4, !tbaa !46
  %40 = load ptr, ptr %6, align 8, !tbaa !26
  %41 = getelementptr inbounds nuw %struct.OSSAudioData, ptr %40, i32 0, i32 8
  %42 = getelementptr inbounds [4096 x i8], ptr %41, i64 0, i64 0
  %43 = load ptr, ptr %6, align 8, !tbaa !26
  %44 = getelementptr inbounds nuw %struct.OSSAudioData, ptr %43, i32 0, i32 9
  %45 = load i32, ptr %44, align 4, !tbaa !52
  %46 = sext i32 %45 to i64
  %47 = getelementptr inbounds i8, ptr %42, i64 %46
  %48 = load ptr, ptr %7, align 8, !tbaa !50
  %49 = load i32, ptr %8, align 4, !tbaa !46
  %50 = sext i32 %49 to i64
  call void @llvm.memcpy.p0.p0.i64(ptr align 1 %47, ptr align 1 %48, i64 %50, i1 false)
  %51 = load i32, ptr %8, align 4, !tbaa !46
  %52 = load ptr, ptr %6, align 8, !tbaa !26
  %53 = getelementptr inbounds nuw %struct.OSSAudioData, ptr %52, i32 0, i32 9
  %54 = load i32, ptr %53, align 4, !tbaa !52
  %55 = add nsw i32 %54, %51
  store i32 %55, ptr %53, align 4, !tbaa !52
  %56 = load ptr, ptr %6, align 8, !tbaa !26
  %57 = getelementptr inbounds nuw %struct.OSSAudioData, ptr %56, i32 0, i32 9
  %58 = load i32, ptr %57, align 4, !tbaa !52
  %59 = icmp sge i32 %58, 4096
  br i1 %59, label %60, label %89

60:                                               ; preds = %38
  br label %61

61:                                               ; preds = %85, %60
  %62 = load ptr, ptr %6, align 8, !tbaa !26
  %63 = getelementptr inbounds nuw %struct.OSSAudioData, ptr %62, i32 0, i32 1
  %64 = load i32, ptr %63, align 8, !tbaa !53
  %65 = load ptr, ptr %6, align 8, !tbaa !26
  %66 = getelementptr inbounds nuw %struct.OSSAudioData, ptr %65, i32 0, i32 8
  %67 = getelementptr inbounds [4096 x i8], ptr %66, i64 0, i64 0
  %68 = call i64 @write(i32 noundef %64, ptr noundef %67, i64 noundef 4096)
  %69 = trunc i64 %68 to i32
  store i32 %69, ptr %9, align 4, !tbaa !46
  %70 = load i32, ptr %9, align 4, !tbaa !46
  %71 = icmp sgt i32 %70, 0
  br i1 %71, label %72, label %73

72:                                               ; preds = %61
  br label %86

73:                                               ; preds = %61
  %74 = load i32, ptr %9, align 4, !tbaa !46
  %75 = icmp slt i32 %74, 0
  br i1 %75, label %76, label %85

76:                                               ; preds = %73
  %77 = call ptr @__errno_location() #6
  %78 = load i32, ptr %77, align 4, !tbaa !46
  %79 = icmp ne i32 %78, 11
  br i1 %79, label %80, label %85

80:                                               ; preds = %76
  %81 = call ptr @__errno_location() #6
  %82 = load i32, ptr %81, align 4, !tbaa !46
  %83 = icmp ne i32 %82, 4
  br i1 %83, label %84, label %85

84:                                               ; preds = %80
  store i32 -5, ptr %3, align 4
  store i32 1, ptr %11, align 4
  br label %98

85:                                               ; preds = %80, %76, %73
  br label %61

86:                                               ; preds = %72
  %87 = load ptr, ptr %6, align 8, !tbaa !26
  %88 = getelementptr inbounds nuw %struct.OSSAudioData, ptr %87, i32 0, i32 9
  store i32 0, ptr %88, align 4, !tbaa !52
  br label %89

89:                                               ; preds = %86, %38
  %90 = load i32, ptr %8, align 4, !tbaa !46
  %91 = load ptr, ptr %7, align 8, !tbaa !50
  %92 = sext i32 %90 to i64
  %93 = getelementptr inbounds i8, ptr %91, i64 %92
  store ptr %93, ptr %7, align 8, !tbaa !50
  %94 = load i32, ptr %8, align 4, !tbaa !46
  %95 = load i32, ptr %10, align 4, !tbaa !46
  %96 = sub nsw i32 %95, %94
  store i32 %96, ptr %10, align 4, !tbaa !46
  br label %21, !llvm.loop !54

97:                                               ; preds = %21
  store i32 0, ptr %3, align 4
  store i32 1, ptr %11, align 4
  br label %98

98:                                               ; preds = %97, %84
  call void @llvm.lifetime.end.p0(i64 4, ptr %10) #5
  call void @llvm.lifetime.end.p0(i64 4, ptr %9) #5
  call void @llvm.lifetime.end.p0(i64 4, ptr %8) #5
  call void @llvm.lifetime.end.p0(i64 8, ptr %7) #5
  call void @llvm.lifetime.end.p0(i64 8, ptr %6) #5
  %99 = load i32, ptr %3, align 4
  ret i32 %99
}