; Function Attrs: nofree nounwind uwtable
define internal range(i32 -5, 1) i32 @audio_write_packet(ptr noundef readonly captures(none) %0, ptr noundef readonly captures(none) %1) #1 {
  %3 = getelementptr inbounds nuw i8, ptr %1, i64 32
  %4 = load i32, ptr %3, align 8, !tbaa !42
  %5 = icmp sgt i32 %4, 0
  br i1 %5, label %.lr.ph34, label %.loopexit

.lr.ph34:                                         ; preds = %2
  %6 = getelementptr inbounds nuw i8, ptr %1, i64 24
  %7 = load ptr, ptr %6, align 8, !tbaa !43
  %8 = getelementptr inbounds nuw i8, ptr %0, i64 24
  %9 = load ptr, ptr %8, align 8, !tbaa !4
  %10 = getelementptr inbounds nuw i8, ptr %9, i64 4132
  %11 = getelementptr inbounds nuw i8, ptr %9, i64 33
  %12 = getelementptr inbounds nuw i8, ptr %9, i64 8
  %.pre = load i32, ptr %10, align 4, !tbaa !44
  br label %13

13:                                               ; preds = %.lr.ph34, %36
  %14 = phi i32 [ %.pre, %.lr.ph34 ], [ %37, %36 ]
  %.032 = phi i32 [ %4, %.lr.ph34 ], [ %39, %36 ]
  %.02531 = phi ptr [ %7, %.lr.ph34 ], [ %38, %36 ]
  %15 = sub nsw i32 4096, %14
  %.0. = tail call i32 @llvm.smin.i32(i32 %15, i32 %.032)
  %16 = sext i32 %14 to i64
  %17 = getelementptr inbounds i8, ptr %11, i64 %16
  %18 = sext i32 %.0. to i64
  tail call void @llvm.memcpy.p0.p0.i64(ptr nonnull align 1 %17, ptr align 1 %.02531, i64 %18, i1 false)
  %19 = load i32, ptr %10, align 4, !tbaa !44
  %20 = add nsw i32 %19, %.0.
  store i32 %20, ptr %10, align 4, !tbaa !44
  %21 = icmp sgt i32 %20, 4095
  br i1 %21, label %.preheader, label %36

.preheader:                                       ; preds = %13
  %22 = load i32, ptr %12, align 8, !tbaa !45
  %23 = tail call i64 @write(i32 noundef %22, ptr noundef nonnull %11, i64 noundef 4096) #7
  %24 = trunc i64 %23 to i32
  %25 = icmp sgt i32 %24, 0
  br i1 %25, label %._crit_edge, label %.lr.ph

.lr.ph:                                           ; preds = %.preheader, %31
  %26 = phi i32 [ %34, %31 ], [ %24, %.preheader ]
  %27 = icmp slt i32 %26, 0
  br i1 %27, label %28, label %31

28:                                               ; preds = %.lr.ph
  %29 = tail call ptr @__errno_location() #8
  %30 = load i32, ptr %29, align 4, !tbaa !46
  switch i32 %30, label %.loopexit [
    i32 11, label %31
    i32 4, label %31
  ]

31:                                               ; preds = %28, %28, %.lr.ph
  %32 = load i32, ptr %12, align 8, !tbaa !45
  %33 = tail call i64 @write(i32 noundef %32, ptr noundef nonnull %11, i64 noundef 4096) #7
  %34 = trunc i64 %33 to i32
  %35 = icmp sgt i32 %34, 0
  br i1 %35, label %._crit_edge, label %.lr.ph

._crit_edge:                                      ; preds = %31, %.preheader
  store i32 0, ptr %10, align 4, !tbaa !44
  br label %36

36:                                               ; preds = %._crit_edge, %13
  %37 = phi i32 [ 0, %._crit_edge ], [ %20, %13 ]
  %38 = getelementptr inbounds i8, ptr %.02531, i64 %18
  %39 = sub nsw i32 %.032, %.0.
  %40 = icmp sgt i32 %39, 0
  br i1 %40, label %13, label %.loopexit, !llvm.loop !47

.loopexit:                                        ; preds = %36, %28, %2
  %.024 = phi i32 [ 0, %2 ], [ -5, %28 ], [ 0, %36 ]
  ret i32 %.024
}